target datalayout = "e-m:e-p270:32:32-p271:32:32-p272:64:64-i64:64-i128:128-f80:128-n8:16:32:64-S128"
target triple = "x86_64-pc-linux-gnu"

@rawoutstream = external global ptr, align 8
@.str.10 = private unnamed_addr constant [26 x i8] c"%s: Version %u.%u.%u%s%s\0A\00", align 1
@.str.11 = private unnamed_addr constant [1 x i8] zeroinitializer, align 1

; Function Attrs: nounwind uwtable
define void @print_version(ptr noundef %0) #0 {
  %2 = alloca ptr, align 8
  store ptr %0, ptr %2, align 8
  %3 = load ptr, ptr @rawoutstream, align 8
  %4 = icmp ne ptr %3, null
  br i1 %4, label %5, label %9

5:                                                ; preds = %1
  %6 = load ptr, ptr @rawoutstream, align 8
  %7 = load ptr, ptr %2, align 8
  %8 = call i32 (ptr, ptr, ...) @fprintf(ptr noundef %6, ptr noundef @.str.10, ptr noundef %7, i32 noundef 1, i32 noundef 15, i32 noundef 0, ptr noundef @.str.11, ptr noundef @.str.11) #12
  br label %9

9:                                                ; preds = %5, %1
  ret void
}