; Function Attrs: nofree nounwind uwtable
define void @print_version(ptr noundef %0) local_unnamed_addr #0 {
  %2 = load ptr, ptr @rawoutstream, align 8
  %.not = icmp eq ptr %2, null
  br i1 %.not, label %5, label %3

3:                                                ; preds = %1
  %4 = tail call i32 (ptr, ptr, ...) @fprintf(ptr noundef nonnull %2, ptr noundef nonnull @.str.10, ptr noundef %0, i32 noundef 1, i32 noundef 15, i32 noundef 0, ptr noundef nonnull @.str.11, ptr noundef nonnull @.str.11) #23
  br label %5

5:                                                ; preds = %3, %1
  ret void
}